target datalayout = "e-m:e-p270:32:32-p271:32:32-p272:64:64-i64:64-i128:128-f80:128-n8:16:32:64-S128"
target triple = "x86_64-pc-linux-gnu"

%struct.__va_list_tag = type { i32, i32, ptr, ptr }

@rand_order = internal global i32 0, align 4
@seed = internal global i32 0, align 4
@.str.19 = private unnamed_addr constant [30 x i8] c"# OPENSSL_TEST_RAND_ORDER=%d\0A\00", align 1
@.str.20 = private unnamed_addr constant [29 x i8] c"# OPENSSL_TEST_RAND_SEED=%d\0A\00", align 1
@.str.21 = private unnamed_addr constant [4 x i8] c"%s \00", align 1
@.str.22 = private unnamed_addr constant [3 x i8] c"ok\00", align 1
@.str.23 = private unnamed_addr constant [7 x i8] c"not ok\00", align 1
@.str.24 = private unnamed_addr constant [11 x i8] c" # skipped\00", align 1
@.str.25 = private unnamed_addr constant [2 x i8] c"\0A\00", align 1

; Function Attrs: nounwind uwtable
define internal void @test_verdict(i32 noundef %0, ptr noundef %1, ...) #0 {
  %3 = alloca i32, align 4
  %4 = alloca ptr, align 8
  %5 = alloca [1 x %struct.__va_list_tag], align 16
  store i32 %0, ptr %3, align 4, !tbaa !9
  store ptr %1, ptr %4, align 8, !tbaa !3
  call void @llvm.lifetime.start.p0(i64 24, ptr %5) #7
  %6 = call i32 @test_flush_stdout()
  %7 = call i32 @test_flush_stderr()
  %8 = load i32, ptr %3, align 4, !tbaa !9
  %9 = icmp eq i32 %8, 0
  br i1 %9, label %10, label %20

10:                                               ; preds = %2
  %11 = load i32, ptr @rand_order, align 4, !tbaa !9
  %12 = icmp ne i32 %11, 0
  br i1 %12, label %13, label %16

13:                                               ; preds = %10
  %14 = load i32, ptr @seed, align 4, !tbaa !9
  %15 = call i32 (ptr, ...) @test_printf_tapout(ptr noundef @.str.19, i32 noundef %14)
  br label %19

16:                                               ; preds = %10
  %17 = load i32, ptr @seed, align 4, !tbaa !9
  %18 = call i32 (ptr, ...) @test_printf_tapout(ptr noundef @.str.20, i32 noundef %17)
  br label %19

19:                                               ; preds = %16, %13
  br label %20

20:                                               ; preds = %19, %2
  %21 = load i32, ptr %3, align 4, !tbaa !9
  %22 = icmp ne i32 %21, 0
  %23 = select i1 %22, ptr @.str.22, ptr @.str.23
  %24 = call i32 (ptr, ...) @test_printf_tapout(ptr noundef @.str.21, ptr noundef %23)
  %25 = getelementptr inbounds [1 x %struct.__va_list_tag], ptr %5, i64 0, i64 0
  call void @llvm.va_start.p0(ptr %25)
  %26 = load ptr, ptr %4, align 8, !tbaa !3
  %27 = getelementptr inbounds [1 x %struct.__va_list_tag], ptr %5, i64 0, i64 0
  %28 = call i32 @test_vprintf_tapout(ptr noundef %26, ptr noundef %27)
  %29 = getelementptr inbounds [1 x %struct.__va_list_tag], ptr %5, i64 0, i64 0
  call void @llvm.va_end.p0(ptr %29)
  %30 = load i32, ptr %3, align 4, !tbaa !9
  %31 = icmp eq i32 %30, 123
  br i1 %31, label %32, label %34

32:                                               ; preds = %20
  %33 = call i32 (ptr, ...) @test_printf_tapout(ptr noundef @.str.24)
  br label %34

34:                                               ; preds = %32, %20
  %35 = call i32 (ptr, ...) @test_printf_tapout(ptr noundef @.str.25)
  %36 = call i32 @test_flush_tapout()
  call void @llvm.lifetime.end.p0(i64 24, ptr %5) #7
  ret void
}