; Function Attrs: nounwind uwtable
define internal void @test_verdict(i32 noundef %0, ptr noundef %1, ...) unnamed_addr #1 {
  %3 = alloca [1 x %struct.__va_list_tag], align 16
  call void @llvm.lifetime.start.p0(i64 24, ptr nonnull %3) #13
  %4 = tail call i32 @test_flush_stdout() #13
  %5 = tail call i32 @test_flush_stderr() #13
  %6 = icmp eq i32 %0, 0
  br i1 %6, label %.sink.split, label %9

.sink.split:                                      ; preds = %2
  %.b = load i1, ptr @rand_order, align 4
  %7 = load i32, ptr @seed, align 4, !tbaa !3
  %.str.19..str.20 = select i1 %.b, ptr @.str.19, ptr @.str.20
  %8 = tail call i32 (ptr, ...) @test_printf_tapout(ptr noundef nonnull %.str.19..str.20, i32 noundef %7) #13
  br label %9

9:                                                ; preds = %.sink.split, %2
  %10 = phi ptr [ @.str.22, %2 ], [ @.str.23, %.sink.split ]
  %11 = tail call i32 (ptr, ...) @test_printf_tapout(ptr noundef nonnull @.str.21, ptr noundef nonnull %10) #13
  call void @llvm.va_start.p0(ptr nonnull %3)
  %12 = call i32 @test_vprintf_tapout(ptr noundef %1, ptr noundef nonnull %3) #13
  call void @llvm.va_end.p0(ptr nonnull %3)
  %13 = icmp eq i32 %0, 123
  br i1 %13, label %14, label %16

14:                                               ; preds = %9
  %15 = call i32 (ptr, ...) @test_printf_tapout(ptr noundef nonnull @.str.24) #13
  br label %16

16:                                               ; preds = %14, %9
  %17 = call i32 (ptr, ...) @test_printf_tapout(ptr noundef nonnull @.str.25) #13
  %18 = call i32 @test_flush_tapout() #13
  call void @llvm.lifetime.end.p0(i64 24, ptr nonnull %3) #13
  ret void
}